; ModuleID = '39/1548.c'
source_filename = "39/1548.c"
target datalayout = "e-m:e-p270:32:32-p271:32:32-p272:64:64-i64:64-f80:128-n8:16:32:64-S128"
target triple = "x86_64-pc-linux-gnu"

%struct.anon = type { i32, i32, i32, i32, [20 x i8], i8, i8 }

@.str = private unnamed_addr constant [3 x i8] c"%d\00", align 1
@.str.1 = private unnamed_addr constant [18 x i8] c"%s %d %d %c %c %d\00", align 1
@.str.2 = private unnamed_addr constant [9 x i8] c"%s\0A%d\0A%d\00", align 1

; Function Attrs: noinline nounwind uwtable
define dso_local i32 @main() #0 {
  %1 = alloca i32, align 4
  %2 = alloca i32, align 4
  %3 = alloca i32, align 4
  %4 = alloca i32, align 4
  %5 = alloca i32, align 4
  %6 = alloca [20 x i8], align 16
  %7 = alloca [100 x %struct.anon], align 16
  store i32 0, i32* %1, align 4
  store i32 0, i32* %2, align 4
  store i32 0, i32* %5, align 4
  %8 = call i32 (i8*, ...) @__isoc99_scanf(i8* getelementptr inbounds ([3 x i8], [3 x i8]* @.str, i64 0, i64 0), i32* %4)
  store i32 0, i32* %3, align 4
  br label %9

9:                                                ; preds = %44, %0
  %10 = load i32, i32* %3, align 4
  %11 = load i32, i32* %4, align 4
  %12 = icmp slt i32 %10, %11
  br i1 %12, label %13, label %47

13:                                               ; preds = %9
  %14 = load i32, i32* %3, align 4
  %15 = sext i32 %14 to i64
  %16 = getelementptr inbounds [100 x %struct.anon], [100 x %struct.anon]* %7, i64 0, i64 %15
  %17 = getelementptr inbounds %struct.anon, %struct.anon* %16, i32 0, i32 4
  %18 = getelementptr inbounds [20 x i8], [20 x i8]* %17, i64 0, i64 0
  %19 = load i32, i32* %3, align 4
  %20 = sext i32 %19 to i64
  %21 = getelementptr inbounds [100 x %struct.anon], [100 x %struct.anon]* %7, i64 0, i64 %20
  %22 = getelementptr inbounds %struct.anon, %struct.anon* %21, i32 0, i32 0
  %23 = load i32, i32* %3, align 4
  %24 = sext i32 %23 to i64
  %25 = getelementptr inbounds [100 x %struct.anon], [100 x %struct.anon]* %7, i64 0, i64 %24
  %26 = getelementptr inbounds %struct.anon, %struct.anon* %25, i32 0, i32 1
  %27 = load i32, i32* %3, align 4
  %28 = sext i32 %27 to i64
  %29 = getelementptr inbounds [100 x %struct.anon], [100 x %struct.anon]* %7, i64 0, i64 %28
  %30 = getelementptr inbounds %struct.anon, %struct.anon* %29, i32 0, i32 6
  %31 = load i32, i32* %3, align 4
  %32 = sext i32 %31 to i64
  %33 = getelementptr inbounds [100 x %struct.anon], [100 x %struct.anon]* %7, i64 0, i64 %32
  %34 = getelementptr inbounds %struct.anon, %struct.anon* %33, i32 0, i32 5
  %35 = load i32, i32* %3, align 4
  %36 = sext i32 %35 to i64
  %37 = getelementptr inbounds [100 x %struct.anon], [100 x %struct.anon]* %7, i64 0, i64 %36
  %38 = getelementptr inbounds %struct.anon, %struct.anon* %37, i32 0, i32 2
  %39 = call i32 (i8*, ...) @__isoc99_scanf(i8* getelementptr inbounds ([18 x i8], [18 x i8]* @.str.1, i64 0, i64 0), i8* %18, i32* %22, i32* %26, i8* %30, i8* %34, i32* %38)
  %40 = load i32, i32* %3, align 4
  %41 = sext i32 %40 to i64
  %42 = getelementptr inbounds [100 x %struct.anon], [100 x %struct.anon]* %7, i64 0, i64 %41
  %43 = getelementptr inbounds %struct.anon, %struct.anon* %42, i32 0, i32 3
  store i32 0, i32* %43, align 4
  br label %44

44:                                               ; preds = %13
  %45 = load i32, i32* %3, align 4
  %46 = add nsw i32 %45, 1
  store i32 %46, i32* %3, align 4
  br label %9

47:                                               ; preds = %9
  store i32 0, i32* %3, align 4
  br label %48

48:                                               ; preds = %163, %47
  %49 = load i32, i32* %3, align 4
  %50 = load i32, i32* %4, align 4
  %51 = icmp slt i32 %49, %50
  br i1 %51, label %52, label %166

52:                                               ; preds = %48
  %53 = load i32, i32* %3, align 4
  %54 = sext i32 %53 to i64
  %55 = getelementptr inbounds [100 x %struct.anon], [100 x %struct.anon]* %7, i64 0, i64 %54
  %56 = getelementptr inbounds %struct.anon, %struct.anon* %55, i32 0, i32 0
  %57 = load i32, i32* %56, align 8
  %58 = icmp sgt i32 %57, 80
  br i1 %58, label %59, label %75

59:                                               ; preds = %52
  %60 = load i32, i32* %3, align 4
  %61 = sext i32 %60 to i64
  %62 = getelementptr inbounds [100 x %struct.anon], [100 x %struct.anon]* %7, i64 0, i64 %61
  %63 = getelementptr inbounds %struct.anon, %struct.anon* %62, i32 0, i32 2
  %64 = load i32, i32* %63, align 8
  %65 = icmp sge i32 %64, 1
  br i1 %65, label %66, label %75

66:                                               ; preds = %59
  %67 = load i32, i32* %3, align 4
  %68 = sext i32 %67 to i64
  %69 = getelementptr inbounds [100 x %struct.anon], [100 x %struct.anon]* %7, i64 0, i64 %68
  %70 = getelementptr inbounds %struct.anon, %struct.anon* %69, i32 0, i32 3
  %71 = load i32, i32* %70, align 4
  %72 = add nsw i32 %71, 8000
  store i32 %72, i32* %70, align 4
  %73 = load i32, i32* %2, align 4
  %74 = add nsw i32 %73, 8000
  store i32 %74, i32* %2, align 4
  br label %75

75:                                               ; preds = %66, %59, %52
  %76 = load i32, i32* %3, align 4
  %77 = sext i32 %76 to i64
  %78 = getelementptr inbounds [100 x %struct.anon], [100 x %struct.anon]* %7, i64 0, i64 %77
  %79 = getelementptr inbounds %struct.anon, %struct.anon* %78, i32 0, i32 0
  %80 = load i32, i32* %79, align 8
  %81 = icmp sgt i32 %80, 85
  br i1 %81, label %82, label %98

82:                                               ; preds = %75
  %83 = load i32, i32* %3, align 4
  %84 = sext i32 %83 to i64
  %85 = getelementptr inbounds [100 x %struct.anon], [100 x %struct.anon]* %7, i64 0, i64 %84
  %86 = getelementptr inbounds %struct.anon, %struct.anon* %85, i32 0, i32 1
  %87 = load i32, i32* %86, align 4
  %88 = icmp sgt i32 %87, 80
  br i1 %88, label %89, label %98

89:                                               ; preds = %82
  %90 = load i32, i32* %3, align 4
  %91 = sext i32 %90 to i64
  %92 = getelementptr inbounds [100 x %struct.anon], [100 x %struct.anon]* %7, i64 0, i64 %91
  %93 = getelementptr inbounds %struct.anon, %struct.anon* %92, i32 0, i32 3
  %94 = load i32, i32* %93, align 4
  %95 = add nsw i32 %94, 4000
  store i32 %95, i32* %93, align 4
  %96 = load i32, i32* %2, align 4
  %97 = add nsw i32 %96, 4000
  store i32 %97, i32* %2, align 4
  br label %98

98:                                               ; preds = %89, %82, %75
  %99 = load i32, i32* %3, align 4
  %100 = sext i32 %99 to i64
  %101 = getelementptr inbounds [100 x %struct.anon], [100 x %struct.anon]* %7, i64 0, i64 %100
  %102 = getelementptr inbounds %struct.anon, %struct.anon* %101, i32 0, i32 0
  %103 = load i32, i32* %102, align 8
  %104 = icmp sgt i32 %103, 90
  br i1 %104, label %105, label %114

105:                                              ; preds = %98
  %106 = load i32, i32* %3, align 4
  %107 = sext i32 %106 to i64
  %108 = getelementptr inbounds [100 x %struct.anon], [100 x %struct.anon]* %7, i64 0, i64 %107
  %109 = getelementptr inbounds %struct.anon, %struct.anon* %108, i32 0, i32 3
  %110 = load i32, i32* %109, align 4
  %111 = add nsw i32 %110, 2000
  store i32 %111, i32* %109, align 4
  %112 = load i32, i32* %2, align 4
  %113 = add nsw i32 %112, 2000
  store i32 %113, i32* %2, align 4
  br label %114

114:                                              ; preds = %105, %98
  %115 = load i32, i32* %3, align 4
  %116 = sext i32 %115 to i64
  %117 = getelementptr inbounds [100 x %struct.anon], [100 x %struct.anon]* %7, i64 0, i64 %116
  %118 = getelementptr inbounds %struct.anon, %struct.anon* %117, i32 0, i32 5
  %119 = load i8, i8* %118, align 4
  %120 = sext i8 %119 to i32
  %121 = icmp eq i32 %120, 89
  br i1 %121, label %122, label %138

122:                                              ; preds = %114
  %123 = load i32, i32* %3, align 4
  %124 = sext i32 %123 to i64
  %125 = getelementptr inbounds [100 x %struct.anon], [100 x %struct.anon]* %7, i64 0, i64 %124
  %126 = getelementptr inbounds %struct.anon, %struct.anon* %125, i32 0, i32 0
  %127 = load i32, i32* %126, align 8
  %128 = icmp sgt i32 %127, 85
  br i1 %128, label %129, label %138

129:                                              ; preds = %122
  %130 = load i32, i32* %3, align 4
  %131 = sext i32 %130 to i64
  %132 = getelementptr inbounds [100 x %struct.anon], [100 x %struct.anon]* %7, i64 0, i64 %131
  %133 = getelementptr inbounds %struct.anon, %struct.anon* %132, i32 0, i32 3
  %134 = load i32, i32* %133, align 4
  %135 = add nsw i32 %134, 1000
  store i32 %135, i32* %133, align 4
  %136 = load i32, i32* %2, align 4
  %137 = add nsw i32 %136, 1000
  store i32 %137, i32* %2, align 4
  br label %138

138:                                              ; preds = %129, %122, %114
  %139 = load i32, i32* %3, align 4
  %140 = sext i32 %139 to i64
  %141 = getelementptr inbounds [100 x %struct.anon], [100 x %struct.anon]* %7, i64 0, i64 %140
  %142 = getelementptr inbounds %struct.anon, %struct.anon* %141, i32 0, i32 6
  %143 = load i8, i8* %142, align 1
  %144 = sext i8 %143 to i32
  %145 = icmp eq i32 %144, 89
  br i1 %145, label %146, label %162

146:                                              ; preds = %138
  %147 = load i32, i32* %3, align 4
  %148 = sext i32 %147 to i64
  %149 = getelementptr inbounds [100 x %struct.anon], [100 x %struct.anon]* %7, i64 0, i64 %148
  %150 = getelementptr inbounds %struct.anon, %struct.anon* %149, i32 0, i32 1
  %151 = load i32, i32* %150, align 4
  %152 = icmp sgt i32 %151, 80
  br i1 %152, label %153, label %162

153:                                              ; preds = %146
  %154 = load i32, i32* %3, align 4
  %155 = sext i32 %154 to i64
  %156 = getelementptr inbounds [100 x %struct.anon], [100 x %struct.anon]* %7, i64 0, i64 %155
  %157 = getelementptr inbounds %struct.anon, %struct.anon* %156, i32 0, i32 3
  %158 = load i32, i32* %157, align 4
  %159 = add nsw i32 %158, 850
  store i32 %159, i32* %157, align 4
  %160 = load i32, i32* %2, align 4
  %161 = add nsw i32 %160, 850
  store i32 %161, i32* %2, align 4
  br label %162

162:                                              ; preds = %153, %146, %138
  br label %163

163:                                              ; preds = %162
  %164 = load i32, i32* %3, align 4
  %165 = add nsw i32 %164, 1
  store i32 %165, i32* %3, align 4
  br label %48

166:                                              ; preds = %48
  store i32 0, i32* %3, align 4
  br label %167

167:                                              ; preds = %193, %166
  %168 = load i32, i32* %3, align 4
  %169 = load i32, i32* %4, align 4
  %170 = icmp slt i32 %168, %169
  br i1 %170, label %171, label %196

171:                                              ; preds = %167
  %172 = load i32, i32* %3, align 4
  %173 = sext i32 %172 to i64
  %174 = getelementptr inbounds [100 x %struct.anon], [100 x %struct.anon]* %7, i64 0, i64 %173
  %175 = getelementptr inbounds %struct.anon, %struct.anon* %174, i32 0, i32 3
  %176 = load i32, i32* %175, align 4
  %177 = load i32, i32* %5, align 4
  %178 = icmp sgt i32 %176, %177
  br i1 %178, label %179, label %192

179:                                              ; preds = %171
  %180 = load i32, i32* %3, align 4
  %181 = sext i32 %180 to i64
  %182 = getelementptr inbounds [100 x %struct.anon], [100 x %struct.anon]* %7, i64 0, i64 %181
  %183 = getelementptr inbounds %struct.anon, %struct.anon* %182, i32 0, i32 3
  %184 = load i32, i32* %183, align 4
  store i32 %184, i32* %5, align 4
  %185 = getelementptr inbounds [20 x i8], [20 x i8]* %6, i64 0, i64 0
  %186 = load i32, i32* %3, align 4
  %187 = sext i32 %186 to i64
  %188 = getelementptr inbounds [100 x %struct.anon], [100 x %struct.anon]* %7, i64 0, i64 %187
  %189 = getelementptr inbounds %struct.anon, %struct.anon* %188, i32 0, i32 4
  %190 = getelementptr inbounds [20 x i8], [20 x i8]* %189, i64 0, i64 0
  %191 = call i8* @strcpy(i8* %185, i8* %190) #3
  br label %192

192:                                              ; preds = %179, %171
  br label %193

193:                                              ; preds = %192
  %194 = load i32, i32* %3, align 4
  %195 = add nsw i32 %194, 1
  store i32 %195, i32* %3, align 4
  br label %167

196:                                              ; preds = %167
  %197 = getelementptr inbounds [20 x i8], [20 x i8]* %6, i64 0, i64 0
  %198 = load i32, i32* %5, align 4
  %199 = load i32, i32* %2, align 4
  %200 = call i32 (i8*, ...) @printf(i8* getelementptr inbounds ([9 x i8], [9 x i8]* @.str.2, i64 0, i64 0), i8* %197, i32 %198, i32 %199)
  ret i32 0
}

declare dso_local i32 @__isoc99_scanf(i8*, ...) #1

; Function Attrs: nounwind
declare dso_local i8* @strcpy(i8*, i8*) #2

declare dso_local i32 @printf(i8*, ...) #1


!llvm.module.flags = !{!0}
!llvm.ident = !{!1}

!0 = !{i32 1, !"wchar_size", i32 4}
!1 = !{!"clang version 10.0.0-4ubuntu1 "}
